target datalayout = "e-m:e-p270:32:32-p271:32:32-p272:64:64-i64:64-i128:128-f80:128-n8:16:32:64-S128"
target triple = "x86_64-pc-linux-gnu"

%struct.expert_field = type { i32, i32 }

@hf_security_10_count = internal global i32 0, align 4
@hf_security_10_permission_group_identifier = internal global i32 0, align 4
@ei_c2_c3_c4_format = internal global %struct.expert_field zeroinitializer, align 4
@.str.180 = private unnamed_addr constant [1 x i8] zeroinitializer, align 1
@.str.700 = private unnamed_addr constant [66 x i8] c"DOF Violation: Type.3.1: Compressed 32-bit Compression Mandatory.\00", align 1
@.str.733 = private unnamed_addr constant [14 x i8] c" (all scopes)\00", align 1
@.str.734 = private unnamed_addr constant [16 x i8] c" (doesn't mask)\00", align 1
@.str.735 = private unnamed_addr constant [17 x i8] c" (session scope)\00", align 1
@.str.736 = private unnamed_addr constant [5 x i8] c"%u%s\00", align 1
@.str.737 = private unnamed_addr constant [66 x i8] c"DOF Violation: Type.1.1: Compressed 16-bit Compression Mandatory.\00", align 1

; Function Attrs: null_pointer_is_valid sspstrong uwtable
define internal void @validate_c4(ptr noundef %0, ptr noundef %1, i32 noundef %2, i32 noundef %3) #0 {
  %5 = alloca ptr, align 8
  %6 = alloca ptr, align 8
  %7 = alloca i32, align 4
  %8 = alloca i32, align 4
  store ptr %0, ptr %5, align 8
  store ptr %1, ptr %6, align 8
  store i32 %2, ptr %7, align 4
  store i32 %3, ptr %8, align 4
  %9 = load i32, ptr %8, align 4
  %10 = icmp sgt i32 %9, 1
  br i1 %10, label %11, label %18

11:                                               ; preds = %4
  %12 = load i32, ptr %7, align 4
  %13 = icmp ult i32 %12, 128
  br i1 %13, label %14, label %18

14:                                               ; preds = %11
  %15 = load ptr, ptr %5, align 8
  %16 = load ptr, ptr %6, align 8
  %17 = call ptr (ptr, ptr, ptr, ptr, ...) @expert_add_info_format(ptr noundef %15, ptr noundef %16, ptr noundef @ei_c2_c3_c4_format, ptr noundef @.str.700)
  br label %18

18:                                               ; preds = %14, %11, %4
  %19 = load i32, ptr %8, align 4
  %20 = icmp sgt i32 %19, 2
  br i1 %20, label %21, label %28

21:                                               ; preds = %18
  %22 = load i32, ptr %7, align 4
  %23 = icmp ult i32 %22, 16384
  br i1 %23, label %24, label %28

24:                                               ; preds = %21
  %25 = load ptr, ptr %5, align 8
  %26 = load ptr, ptr %6, align 8
  %27 = call ptr (ptr, ptr, ptr, ptr, ...) @expert_add_info_format(ptr noundef %25, ptr noundef %26, ptr noundef @ei_c2_c3_c4_format, ptr noundef @.str.700)
  br label %28

28:                                               ; preds = %24, %21, %18
  ret void
}

; Function Attrs: null_pointer_is_valid sspstrong uwtable
define internal i32 @read_c4(ptr noundef %0, i32 noundef %1, ptr noundef %2, ptr noundef %3) #0 {
  %5 = alloca ptr, align 8
  %6 = alloca i32, align 4
  %7 = alloca ptr, align 8
  %8 = alloca ptr, align 8
  %9 = alloca i32, align 4
  %10 = alloca i8, align 1
  %11 = alloca i8, align 1
  %12 = alloca i32, align 4
  store ptr %0, ptr %5, align 8
  store i32 %1, ptr %6, align 4
  store ptr %2, ptr %7, align 8
  store ptr %3, ptr %8, align 8
  call void @llvm.lifetime.start.p0(i64 4, ptr %9) #19
  store i32 0, ptr %9, align 4
  call void @llvm.lifetime.start.p0(i64 1, ptr %10) #19
  store i8 0, ptr %10, align 1
  call void @llvm.lifetime.start.p0(i64 1, ptr %11) #19
  %13 = load ptr, ptr %5, align 8
  %14 = load i32, ptr %6, align 4
  %15 = add i32 %14, 1
  store i32 %15, ptr %6, align 4
  %16 = call zeroext i8 @tvb_get_uint8(ptr noundef %13, i32 noundef %14)
  store i8 %16, ptr %11, align 1
  call void @llvm.lifetime.start.p0(i64 4, ptr %12) #19
  %17 = load i8, ptr %11, align 1
  %18 = zext i8 %17 to i32
  %19 = and i32 %18, 128
  %20 = icmp eq i32 %19, 0
  br i1 %20, label %21, label %26

21:                                               ; preds = %4
  store i8 1, ptr %10, align 1
  %22 = load i8, ptr %11, align 1
  %23 = zext i8 %22 to i32
  %24 = and i32 %23, 127
  %25 = trunc i32 %24 to i8
  store i8 %25, ptr %11, align 1
  br label %42

26:                                               ; preds = %4
  %27 = load i8, ptr %11, align 1
  %28 = zext i8 %27 to i32
  %29 = and i32 %28, 64
  %30 = icmp eq i32 %29, 0
  br i1 %30, label %31, label %36

31:                                               ; preds = %26
  store i8 2, ptr %10, align 1
  %32 = load i8, ptr %11, align 1
  %33 = zext i8 %32 to i32
  %34 = and i32 %33, 63
  %35 = trunc i32 %34 to i8
  store i8 %35, ptr %11, align 1
  br label %41

36:                                               ; preds = %26
  store i8 4, ptr %10, align 1
  %37 = load i8, ptr %11, align 1
  %38 = zext i8 %37 to i32
  %39 = and i32 %38, 63
  %40 = trunc i32 %39 to i8
  store i8 %40, ptr %11, align 1
  br label %41

41:                                               ; preds = %36, %31
  br label %42

42:                                               ; preds = %41, %21
  %43 = load i8, ptr %11, align 1
  %44 = zext i8 %43 to i32
  store i32 %44, ptr %9, align 4
  store i32 1, ptr %12, align 4
  br label %45

45:                                               ; preds = %59, %42
  %46 = load i32, ptr %12, align 4
  %47 = load i8, ptr %10, align 1
  %48 = zext i8 %47 to i32
  %49 = icmp slt i32 %46, %48
  br i1 %49, label %50, label %62

50:                                               ; preds = %45
  %51 = load i32, ptr %9, align 4
  %52 = shl i32 %51, 8
  %53 = load ptr, ptr %5, align 8
  %54 = load i32, ptr %6, align 4
  %55 = add i32 %54, 1
  store i32 %55, ptr %6, align 4
  %56 = call zeroext i8 @tvb_get_uint8(ptr noundef %53, i32 noundef %54)
  %57 = zext i8 %56 to i32
  %58 = or i32 %52, %57
  store i32 %58, ptr %9, align 4
  br label %59

59:                                               ; preds = %50
  %60 = load i32, ptr %12, align 4
  %61 = add i32 %60, 1
  store i32 %61, ptr %12, align 4
  br label %45, !llvm.loop !34

62:                                               ; preds = %45
  %63 = load ptr, ptr %8, align 8
  %64 = icmp ne ptr %63, null
  br i1 %64, label %65, label %69

65:                                               ; preds = %62
  %66 = load i8, ptr %10, align 1
  %67 = zext i8 %66 to i32
  %68 = load ptr, ptr %8, align 8
  store i32 %67, ptr %68, align 4
  br label %69

69:                                               ; preds = %65, %62
  %70 = load ptr, ptr %7, align 8
  %71 = icmp ne ptr %70, null
  br i1 %71, label %72, label %75

72:                                               ; preds = %69
  %73 = load i32, ptr %9, align 4
  %74 = load ptr, ptr %7, align 8
  store i32 %73, ptr %74, align 4
  br label %75

75:                                               ; preds = %72, %69
  %76 = load i32, ptr %6, align 4
  call void @llvm.lifetime.end.p0(i64 4, ptr %12) #19
  call void @llvm.lifetime.end.p0(i64 1, ptr %11) #19
  call void @llvm.lifetime.end.p0(i64 1, ptr %10) #19
  call void @llvm.lifetime.end.p0(i64 4, ptr %9) #19
  ret i32 %76
}

; Function Attrs: null_pointer_is_valid sspstrong uwtable
define internal void @validate_c2(ptr noundef %0, ptr noundef %1, i16 noundef zeroext %2, i32 noundef %3) #0 {
  %5 = alloca ptr, align 8
  %6 = alloca ptr, align 8
  %7 = alloca i16, align 2
  %8 = alloca i32, align 4
  store ptr %0, ptr %5, align 8
  store ptr %1, ptr %6, align 8
  store i16 %2, ptr %7, align 2
  store i32 %3, ptr %8, align 4
  %9 = load i32, ptr %8, align 4
  %10 = icmp sgt i32 %9, 1
  br i1 %10, label %11, label %19

11:                                               ; preds = %4
  %12 = load i16, ptr %7, align 2
  %13 = zext i16 %12 to i32
  %14 = icmp slt i32 %13, 128
  br i1 %14, label %15, label %19

15:                                               ; preds = %11
  %16 = load ptr, ptr %5, align 8
  %17 = load ptr, ptr %6, align 8
  %18 = call ptr (ptr, ptr, ptr, ptr, ...) @expert_add_info_format(ptr noundef %16, ptr noundef %17, ptr noundef @ei_c2_c3_c4_format, ptr noundef @.str.737)
  br label %19

19:                                               ; preds = %15, %11, %4
  ret void
}

; Function Attrs: null_pointer_is_valid sspstrong uwtable
define internal i32 @read_c2(ptr noundef %0, i32 noundef %1, ptr noundef %2, ptr noundef %3) #0 {
  %5 = alloca ptr, align 8
  %6 = alloca i32, align 4
  %7 = alloca ptr, align 8
  %8 = alloca ptr, align 8
  %9 = alloca i16, align 2
  %10 = alloca i8, align 1
  store ptr %0, ptr %5, align 8
  store i32 %1, ptr %6, align 4
  store ptr %2, ptr %7, align 8
  store ptr %3, ptr %8, align 8
  call void @llvm.lifetime.start.p0(i64 2, ptr %9) #19
  store i16 0, ptr %9, align 2
  call void @llvm.lifetime.start.p0(i64 1, ptr %10) #19
  %11 = load ptr, ptr %5, align 8
  %12 = load i32, ptr %6, align 4
  %13 = add i32 %12, 1
  store i32 %13, ptr %6, align 4
  %14 = call zeroext i8 @tvb_get_uint8(ptr noundef %11, i32 noundef %12)
  store i8 %14, ptr %10, align 1
  %15 = load i8, ptr %10, align 1
  %16 = zext i8 %15 to i32
  %17 = and i32 %16, 128
  %18 = icmp ne i32 %17, 0
  br i1 %18, label %19, label %39

19:                                               ; preds = %4
  %20 = load i8, ptr %10, align 1
  %21 = zext i8 %20 to i32
  %22 = and i32 %21, 127
  %23 = trunc i32 %22 to i8
  store i8 %23, ptr %10, align 1
  %24 = load i8, ptr %10, align 1
  %25 = zext i8 %24 to i32
  %26 = shl i32 %25, 8
  %27 = load ptr, ptr %5, align 8
  %28 = load i32, ptr %6, align 4
  %29 = add i32 %28, 1
  store i32 %29, ptr %6, align 4
  %30 = call zeroext i8 @tvb_get_uint8(ptr noundef %27, i32 noundef %28)
  %31 = zext i8 %30 to i32
  %32 = or i32 %26, %31
  %33 = trunc i32 %32 to i16
  store i16 %33, ptr %9, align 2
  %34 = load ptr, ptr %8, align 8
  %35 = icmp ne ptr %34, null
  br i1 %35, label %36, label %38

36:                                               ; preds = %19
  %37 = load ptr, ptr %8, align 8
  store i32 2, ptr %37, align 4
  br label %38

38:                                               ; preds = %36, %19
  br label %47

39:                                               ; preds = %4
  %40 = load i8, ptr %10, align 1
  %41 = zext i8 %40 to i16
  store i16 %41, ptr %9, align 2
  %42 = load ptr, ptr %8, align 8
  %43 = icmp ne ptr %42, null
  br i1 %43, label %44, label %46

44:                                               ; preds = %39
  %45 = load ptr, ptr %8, align 8
  store i32 1, ptr %45, align 4
  br label %46

46:                                               ; preds = %44, %39
  br label %47

47:                                               ; preds = %46, %38
  %48 = load ptr, ptr %7, align 8
  %49 = icmp ne ptr %48, null
  br i1 %49, label %50, label %53

50:                                               ; preds = %47
  %51 = load i16, ptr %9, align 2
  %52 = load ptr, ptr %7, align 8
  store i16 %51, ptr %52, align 2
  br label %53

53:                                               ; preds = %50, %47
  %54 = load i32, ptr %6, align 4
  call void @llvm.lifetime.end.p0(i64 1, ptr %10) #19
  call void @llvm.lifetime.end.p0(i64 2, ptr %9) #19
  ret i32 %54
}

; Function Attrs: null_pointer_is_valid sspstrong uwtable
define internal i32 @dissect_2008_16_security_10(ptr noundef %0, ptr noundef %1, ptr noundef %2, ptr noundef %3) #0 {
  %5 = alloca ptr, align 8
  %6 = alloca ptr, align 8
  %7 = alloca ptr, align 8
  %8 = alloca ptr, align 8
  %9 = alloca i32, align 4
  %10 = alloca i16, align 2
  %11 = alloca i32, align 4
  %12 = alloca i16, align 2
  %13 = alloca i32, align 4
  %14 = alloca ptr, align 8
  %15 = alloca ptr, align 8
  %16 = alloca i32, align 4
  %17 = alloca i32, align 4
  %18 = alloca i32, align 4
  %19 = alloca ptr, align 8
  store ptr %0, ptr %5, align 8
  store ptr %1, ptr %6, align 8
  store ptr %2, ptr %7, align 8
  store ptr %3, ptr %8, align 8
  call void @llvm.lifetime.start.p0(i64 4, ptr %9) #19
  store i32 0, ptr %9, align 4
  call void @llvm.lifetime.start.p0(i64 2, ptr %10) #19
  call void @llvm.lifetime.start.p0(i64 4, ptr %11) #19
  %20 = load i32, ptr %9, align 4
  store i32 %20, ptr %11, align 4
  call void @llvm.lifetime.start.p0(i64 2, ptr %12) #19
  call void @llvm.lifetime.start.p0(i64 4, ptr %13) #19
  call void @llvm.lifetime.start.p0(i64 8, ptr %14) #19
  %21 = load ptr, ptr %5, align 8
  %22 = load i32, ptr %9, align 4
  %23 = call i32 @read_c2(ptr noundef %21, i32 noundef %22, ptr noundef %12, ptr noundef %13)
  store i32 %23, ptr %9, align 4
  %24 = load i16, ptr %12, align 2
  store i16 %24, ptr %10, align 2
  %25 = load ptr, ptr %7, align 8
  %26 = load i32, ptr @hf_security_10_count, align 4
  %27 = load ptr, ptr %5, align 8
  %28 = load i32, ptr %11, align 4
  %29 = load i32, ptr %9, align 4
  %30 = load i32, ptr %11, align 4
  %31 = sub i32 %29, %30
  %32 = load i16, ptr %12, align 2
  %33 = zext i16 %32 to i32
  %34 = call ptr @proto_tree_add_uint(ptr noundef %25, i32 noundef %26, ptr noundef %27, i32 noundef %28, i32 noundef %31, i32 noundef %33)
  store ptr %34, ptr %14, align 8
  %35 = load ptr, ptr %6, align 8
  %36 = load ptr, ptr %14, align 8
  %37 = load i16, ptr %12, align 2
  %38 = load i32, ptr %13, align 4
  call void @validate_c2(ptr noundef %35, ptr noundef %36, i16 noundef zeroext %37, i32 noundef %38)
  call void @llvm.lifetime.end.p0(i64 8, ptr %14) #19
  call void @llvm.lifetime.end.p0(i64 4, ptr %13) #19
  call void @llvm.lifetime.end.p0(i64 2, ptr %12) #19
  call void @llvm.lifetime.end.p0(i64 4, ptr %11) #19
  br label %39

39:                                               ; preds = %52, %4
  %40 = load i16, ptr %10, align 2
  %41 = add i16 %40, -1
  store i16 %41, ptr %10, align 2
  %42 = icmp ne i16 %40, 0
  br i1 %42, label %43, label %68

43:                                               ; preds = %39
  call void @llvm.lifetime.start.p0(i64 8, ptr %15) #19
  store ptr @.str.180, ptr %15, align 8
  call void @llvm.lifetime.start.p0(i64 4, ptr %16) #19
  %44 = load i32, ptr %9, align 4
  store i32 %44, ptr %16, align 4
  call void @llvm.lifetime.start.p0(i64 4, ptr %17) #19
  call void @llvm.lifetime.start.p0(i64 4, ptr %18) #19
  call void @llvm.lifetime.start.p0(i64 8, ptr %19) #19
  %45 = load ptr, ptr %5, align 8
  %46 = load i32, ptr %9, align 4
  %47 = call i32 @read_c4(ptr noundef %45, i32 noundef %46, ptr noundef %17, ptr noundef %18)
  store i32 %47, ptr %9, align 4
  %48 = load i32, ptr %17, align 4
  switch i32 %48, label %52 [
    i32 1073741823, label %49
    i32 1073741822, label %50
    i32 1073741821, label %51
  ]

49:                                               ; preds = %43
  store ptr @.str.733, ptr %15, align 8
  br label %52

50:                                               ; preds = %43
  store ptr @.str.734, ptr %15, align 8
  br label %52

51:                                               ; preds = %43
  store ptr @.str.735, ptr %15, align 8
  br label %52

52:                                               ; preds = %43, %51, %50, %49
  %53 = load ptr, ptr %7, align 8
  %54 = load i32, ptr @hf_security_10_permission_group_identifier, align 4
  %55 = load ptr, ptr %5, align 8
  %56 = load i32, ptr %16, align 4
  %57 = load i32, ptr %9, align 4
  %58 = load i32, ptr %16, align 4
  %59 = sub i32 %57, %58
  %60 = load i32, ptr %17, align 4
  %61 = load i32, ptr %17, align 4
  %62 = load ptr, ptr %15, align 8
  %63 = call ptr (ptr, i32, ptr, i32, i32, i32, ptr, ...) @proto_tree_add_uint_format_value(ptr noundef %53, i32 noundef %54, ptr noundef %55, i32 noundef %56, i32 noundef %59, i32 noundef %60, ptr noundef @.str.736, i32 noundef %61, ptr noundef %62)
  store ptr %63, ptr %19, align 8
  %64 = load ptr, ptr %6, align 8
  %65 = load ptr, ptr %19, align 8
  %66 = load i32, ptr %17, align 4
  %67 = load i32, ptr %18, align 4
  call void @validate_c4(ptr noundef %64, ptr noundef %65, i32 noundef %66, i32 noundef %67)
  call void @llvm.lifetime.end.p0(i64 8, ptr %19) #19
  call void @llvm.lifetime.end.p0(i64 4, ptr %18) #19
  call void @llvm.lifetime.end.p0(i64 4, ptr %17) #19
  call void @llvm.lifetime.end.p0(i64 4, ptr %16) #19
  call void @llvm.lifetime.end.p0(i64 8, ptr %15) #19
  br label %39, !llvm.loop !52

68:                                               ; preds = %39
  %69 = load i32, ptr %9, align 4
  call void @llvm.lifetime.end.p0(i64 2, ptr %10) #19
  call void @llvm.lifetime.end.p0(i64 4, ptr %9) #19
  ret i32 %69
}