; Function Attrs: null_pointer_is_valid sspstrong uwtable
define internal noundef i32 @dissect_2008_16_security_10(ptr noundef %0, ptr noundef %1, ptr noundef %2, ptr readnone captures(none) %3) #0 {
  %5 = tail call zeroext i8 @tvb_get_uint8(ptr noundef %0, i32 noundef 0)
  %.not.i = icmp slt i8 %5, 0
  br i1 %.not.i, label %6, label %13

6:                                                ; preds = %4
  %7 = and i8 %5, 127
  %8 = zext nneg i8 %7 to i16
  %9 = shl nuw nsw i16 %8, 8
  %10 = tail call zeroext i8 @tvb_get_uint8(ptr noundef %0, i32 noundef 1)
  %11 = zext i8 %10 to i16
  %12 = or disjoint i16 %9, %11
  br label %read_c2.exit

13:                                               ; preds = %4
  %14 = zext nneg i8 %5 to i16
  br label %read_c2.exit

read_c2.exit:                                     ; preds = %6, %13
  %.sink.i = phi i32 [ 2, %6 ], [ 1, %13 ]
  %.0.ph.i = phi i16 [ %12, %6 ], [ %14, %13 ]
  %15 = load i32, ptr @hf_security_10_count, align 4
  %16 = zext nneg i16 %.0.ph.i to i32
  %17 = tail call ptr @proto_tree_add_uint(ptr noundef %2, i32 noundef %15, ptr noundef %0, i32 noundef 0, i32 noundef %.sink.i, i32 noundef %16)
  %18 = icmp samesign ult i16 %.0.ph.i, 128
  %or.cond.i = and i1 %.not.i, %18
  br i1 %or.cond.i, label %19, label %validate_c2.exit

19:                                               ; preds = %read_c2.exit
  %20 = tail call ptr (ptr, ptr, ptr, ptr, ...) @expert_add_info_format(ptr noundef %1, ptr noundef %17, ptr noundef nonnull @ei_c2_c3_c4_format, ptr noundef nonnull @.str.737)
  br label %validate_c2.exit

validate_c2.exit:                                 ; preds = %read_c2.exit, %19
  %.not33 = icmp eq i16 %.0.ph.i, 0
  br i1 %.not33, label %._crit_edge, label %.lr.ph

.lr.ph:                                           ; preds = %validate_c2.exit, %validate_c4.exit
  %.in = phi i16 [ %21, %validate_c4.exit ], [ %.0.ph.i, %validate_c2.exit ]
  %.034 = phi i32 [ %.023.lcssa.i, %validate_c4.exit ], [ %.sink.i, %validate_c2.exit ]
  %21 = add nsw i16 %.in, -1
  %22 = tail call zeroext i8 @tvb_get_uint8(ptr noundef %0, i32 noundef %.034)
  %23 = icmp slt i8 %22, 0
  %24 = and i8 %22, 64
  %.not32 = icmp eq i8 %24, 0
  %25 = and i8 %22, 63
  %..i = select i1 %.not32, i32 2, i32 4
  %.020.i = select i1 %23, i8 %25, i8 %22
  %26 = zext nneg i8 %.020.i to i32
  %.02328.i = add i32 %.034, 1
  br i1 %23, label %.lr.ph.i, label %read_c4.exit

.lr.ph.i:                                         ; preds = %.lr.ph, %.lr.ph.i
  %.02331.i = phi i32 [ %.023.i, %.lr.ph.i ], [ %.02328.i, %.lr.ph ]
  %.030.i = phi i32 [ %31, %.lr.ph.i ], [ 1, %.lr.ph ]
  %.02229.i = phi i32 [ %30, %.lr.ph.i ], [ %26, %.lr.ph ]
  %27 = shl i32 %.02229.i, 8
  %28 = tail call zeroext i8 @tvb_get_uint8(ptr noundef %0, i32 noundef %.02331.i)
  %29 = zext i8 %28 to i32
  %30 = or disjoint i32 %27, %29
  %31 = add nuw nsw i32 %.030.i, 1
  %.023.i = add i32 %.02331.i, 1
  %exitcond.not.i = icmp eq i32 %31, %..i
  br i1 %exitcond.not.i, label %read_c4.exit, label %.lr.ph.i, !llvm.loop !33

read_c4.exit:                                     ; preds = %.lr.ph.i, %.lr.ph
  %.022.lcssa.i = phi i32 [ %26, %.lr.ph ], [ %30, %.lr.ph.i ]
  %.023.lcssa.i = phi i32 [ %.02328.i, %.lr.ph ], [ %.023.i, %.lr.ph.i ]
  %switch.tableidx = add i32 %.022.lcssa.i, -1073741821
  %32 = icmp ult i32 %switch.tableidx, 3
  br i1 %32, label %switch.lookup, label %34

switch.lookup:                                    ; preds = %read_c4.exit
  %33 = zext nneg i32 %switch.tableidx to i64
  %switch.gep = getelementptr inbounds nuw [3 x ptr], ptr @switch.table.dissect_2008_16_security_11, i64 0, i64 %33
  %switch.load = load ptr, ptr %switch.gep, align 8
  br label %34

34:                                               ; preds = %switch.lookup, %read_c4.exit
  %.023 = phi ptr [ @.str.180, %read_c4.exit ], [ %switch.load, %switch.lookup ]
  %35 = load i32, ptr @hf_security_10_permission_group_identifier, align 4
  %36 = sub i32 %.023.lcssa.i, %.034
  %37 = tail call ptr (ptr, i32, ptr, i32, i32, i32, ptr, ...) @proto_tree_add_uint_format_value(ptr noundef %2, i32 noundef %35, ptr noundef %0, i32 noundef %.034, i32 noundef %36, i32 noundef %.022.lcssa.i, ptr noundef nonnull @.str.736, i32 noundef %.022.lcssa.i, ptr noundef nonnull %.023)
  %38 = icmp ult i32 %.022.lcssa.i, 128
  %or.cond.i25 = and i1 %23, %38
  br i1 %or.cond.i25, label %39, label %41

39:                                               ; preds = %34
  %40 = tail call ptr (ptr, ptr, ptr, ptr, ...) @expert_add_info_format(ptr noundef %1, ptr noundef %37, ptr noundef nonnull @ei_c2_c3_c4_format, ptr noundef nonnull @.str.700)
  br label %41

41:                                               ; preds = %39, %34
  %42 = icmp ugt i8 %22, -65
  %43 = icmp ult i32 %.022.lcssa.i, 16384
  %or.cond3.i = and i1 %42, %43
  br i1 %or.cond3.i, label %44, label %validate_c4.exit

44:                                               ; preds = %41
  %45 = tail call ptr (ptr, ptr, ptr, ptr, ...) @expert_add_info_format(ptr noundef %1, ptr noundef %37, ptr noundef nonnull @ei_c2_c3_c4_format, ptr noundef nonnull @.str.700)
  br label %validate_c4.exit

validate_c4.exit:                                 ; preds = %41, %44
  %.not = icmp eq i16 %21, 0
  br i1 %.not, label %._crit_edge, label %.lr.ph, !llvm.loop !67

._crit_edge:                                      ; preds = %validate_c4.exit, %validate_c2.exit
  %.0.lcssa = phi i32 [ %.sink.i, %validate_c2.exit ], [ %.023.lcssa.i, %validate_c4.exit ]
  ret i32 %.0.lcssa
}